; Function Attrs: mustprogress uwtable
define dso_local noundef double @_ZNK4base9Histogram13GetBucketSizeEij(ptr noundef nonnull align 8 dereferenceable(81) %this, i32 noundef %current, i32 noundef %i) unnamed_addr #0 align 2 personality ptr @__gxx_personality_v0 {
if.end:
  %add = add i32 %i, 1
  %vtable = load ptr, ptr %this, align 8
  %vfn = getelementptr inbounds i8, ptr %vtable, i64 144
  %0 = load ptr, ptr %vfn, align 8
  %call4 = tail call noundef i32 %0(ptr noundef nonnull align 8 dereferenceable(81) %this, i32 noundef %add)
  %vtable5 = load ptr, ptr %this, align 8
  %vfn6 = getelementptr inbounds i8, ptr %vtable5, i64 144
  %1 = load ptr, ptr %vfn6, align 8
  %call7 = tail call noundef i32 %1(ptr noundef nonnull align 8 dereferenceable(81) %this, i32 noundef %i)
  %sub = sub nsw i32 %call4, %call7
  %denominator.04 = tail call i32 @llvm.smin.i32(i32 %sub, i32 5)
  %denominator.0 = sitofp i32 %denominator.04 to double
  %conv10 = sitofp i32 %current to double
  %div = fdiv double %conv10, %denominator.0
  ret double %div
}